target datalayout = "e-m:e-p270:32:32-p271:32:32-p272:64:64-i64:64-i128:128-f80:128-n8:16:32:64-S128"
target triple = "x86_64-pc-linux-gnu"

%struct.cmdinfo = type { ptr, ptr, ptr, i32, i32, i32, i32, ptr, ptr, ptr, i64 }
%struct.timespec = type { i64, i64 }

@.str.2 = private unnamed_addr constant [13 x i8] c"%s %s -- %s\0A\00", align 1
@discard_cmd = internal constant %struct.cmdinfo { ptr @.str.155, ptr @.str.156, ptr @discard_f, i32 2, i32 -1, i32 0, i32 0, ptr @.str.157, ptr @.str.158, ptr @discard_help, i64 2 }, align 8
@optind = external global i32, align 4
@.str.23 = private unnamed_addr constant [36 x i8] c"length cannot exceed %lu, given %s\0A\00", align 1
@.str.30 = private unnamed_addr constant [78 x i8] c"Parsing error: non-numeric argument, or extraneous/unrecognized suffix -- %s\0A\00", align 1
@.str.31 = private unnamed_addr constant [41 x i8] c"Parsing error: argument too large -- %s\0A\00", align 1
@.str.32 = private unnamed_addr constant [19 x i8] c"Parsing error: %s\0A\00", align 1
@.str.155 = private unnamed_addr constant [8 x i8] c"discard\00", align 1
@.str.159 = private unnamed_addr constant [3 x i8] c"Cq\00", align 1
@.str.160 = private unnamed_addr constant [20 x i8] c"discard failed: %s\0A\00", align 1

; Function Attrs: nounwind sspstrong uwtable
define internal { i64, i64 } @tsub(i64 %0, i64 %1, i64 %2, i64 %3) #0 {
  %5 = alloca %struct.timespec, align 8
  %6 = alloca %struct.timespec, align 8
  %7 = alloca %struct.timespec, align 8
  %8 = getelementptr inbounds nuw { i64, i64 }, ptr %6, i32 0, i32 0
  store i64 %0, ptr %8, align 8
  %9 = getelementptr inbounds nuw { i64, i64 }, ptr %6, i32 0, i32 1
  store i64 %1, ptr %9, align 8
  %10 = getelementptr inbounds nuw { i64, i64 }, ptr %7, i32 0, i32 0
  store i64 %2, ptr %10, align 8
  %11 = getelementptr inbounds nuw { i64, i64 }, ptr %7, i32 0, i32 1
  store i64 %3, ptr %11, align 8
  %12 = getelementptr inbounds nuw %struct.timespec, ptr %7, i32 0, i32 1
  %13 = load i64, ptr %12, align 8
  %14 = getelementptr inbounds nuw %struct.timespec, ptr %6, i32 0, i32 1
  %15 = load i64, ptr %14, align 8
  %16 = sub i64 %15, %13
  store i64 %16, ptr %14, align 8
  %17 = getelementptr inbounds nuw %struct.timespec, ptr %6, i32 0, i32 1
  %18 = load i64, ptr %17, align 8
  %19 = icmp slt i64 %18, 0
  br i1 %19, label %20, label %27

20:                                               ; preds = %4
  %21 = getelementptr inbounds nuw %struct.timespec, ptr %6, i32 0, i32 1
  %22 = load i64, ptr %21, align 8
  %23 = add i64 %22, 1000000000
  store i64 %23, ptr %21, align 8
  %24 = getelementptr inbounds nuw %struct.timespec, ptr %6, i32 0, i32 0
  %25 = load i64, ptr %24, align 8
  %26 = add i64 %25, -1
  store i64 %26, ptr %24, align 8
  br label %27

27:                                               ; preds = %20, %4
  %28 = getelementptr inbounds nuw %struct.timespec, ptr %7, i32 0, i32 0
  %29 = load i64, ptr %28, align 8
  %30 = getelementptr inbounds nuw %struct.timespec, ptr %6, i32 0, i32 0
  %31 = load i64, ptr %30, align 8
  %32 = sub i64 %31, %29
  store i64 %32, ptr %30, align 8
  call void @llvm.memcpy.p0.p0.i64(ptr align 8 %5, ptr align 8 %6, i64 16, i1 false)
  %33 = load { i64, i64 }, ptr %5, align 8
  ret { i64, i64 } %33
}

; Function Attrs: nounwind sspstrong uwtable
define internal void @print_cvtnum_err(i64 noundef %0, ptr noundef %1) #0 {
  %3 = alloca i64, align 8
  %4 = alloca ptr, align 8
  store i64 %0, ptr %3, align 8
  store ptr %1, ptr %4, align 8
  %5 = load i64, ptr %3, align 8
  switch i64 %5, label %12 [
    i64 -22, label %6
    i64 -34, label %9
  ]

6:                                                ; preds = %2
  %7 = load ptr, ptr %4, align 8
  %8 = call i32 (i32, ptr, ...) @__printf_chk(i32 noundef 1, ptr noundef @.str.30, ptr noundef %7)
  br label %15

9:                                                ; preds = %2
  %10 = load ptr, ptr %4, align 8
  %11 = call i32 (i32, ptr, ...) @__printf_chk(i32 noundef 1, ptr noundef @.str.31, ptr noundef %10)
  br label %15

12:                                               ; preds = %2
  %13 = load ptr, ptr %4, align 8
  %14 = call i32 (i32, ptr, ...) @__printf_chk(i32 noundef 1, ptr noundef @.str.32, ptr noundef %13)
  br label %15

15:                                               ; preds = %12, %9, %6
  ret void
}

; Function Attrs: nounwind sspstrong uwtable
define internal i64 @cvtnum(ptr noundef %0) #0 {
  %2 = alloca i64, align 8
  %3 = alloca ptr, align 8
  %4 = alloca i32, align 4
  %5 = alloca i64, align 8
  %6 = alloca i32, align 4
  store ptr %0, ptr %3, align 8
  call void @llvm.lifetime.start.p0(i64 4, ptr %4) #18
  store i32 0, ptr %4, align 4, !annotation !4
  call void @llvm.lifetime.start.p0(i64 8, ptr %5) #18
  store i64 0, ptr %5, align 8, !annotation !4
  %7 = load ptr, ptr %3, align 8
  %8 = call i32 @qemu_strtosz(ptr noundef %7, ptr noundef null, ptr noundef %5)
  store i32 %8, ptr %4, align 4
  %9 = load i32, ptr %4, align 4
  %10 = icmp slt i32 %9, 0
  br i1 %10, label %11, label %14

11:                                               ; preds = %1
  %12 = load i32, ptr %4, align 4
  %13 = sext i32 %12 to i64
  store i64 %13, ptr %2, align 8
  store i32 1, ptr %6, align 4
  br label %20

14:                                               ; preds = %1
  %15 = load i64, ptr %5, align 8
  %16 = icmp ugt i64 %15, 9223372036854775807
  br i1 %16, label %17, label %18

17:                                               ; preds = %14
  store i64 -34, ptr %2, align 8
  store i32 1, ptr %6, align 4
  br label %20

18:                                               ; preds = %14
  %19 = load i64, ptr %5, align 8
  store i64 %19, ptr %2, align 8
  store i32 1, ptr %6, align 4
  br label %20

20:                                               ; preds = %18, %17, %11
  call void @llvm.lifetime.end.p0(i64 8, ptr %5) #18
  call void @llvm.lifetime.end.p0(i64 4, ptr %4) #18
  %21 = load i64, ptr %2, align 8
  ret i64 %21
}

; Function Attrs: nounwind sspstrong uwtable
define dso_local void @qemuio_command_usage(ptr noundef %0) #0 {
  %2 = alloca ptr, align 8
  store ptr %0, ptr %2, align 8
  %3 = load ptr, ptr %2, align 8
  %4 = getelementptr inbounds nuw %struct.cmdinfo, ptr %3, i32 0, i32 0
  %5 = load ptr, ptr %4, align 8
  %6 = load ptr, ptr %2, align 8
  %7 = getelementptr inbounds nuw %struct.cmdinfo, ptr %6, i32 0, i32 7
  %8 = load ptr, ptr %7, align 8
  %9 = load ptr, ptr %2, align 8
  %10 = getelementptr inbounds nuw %struct.cmdinfo, ptr %9, i32 0, i32 8
  %11 = load ptr, ptr %10, align 8
  %12 = call i32 (i32, ptr, ...) @__printf_chk(i32 noundef 1, ptr noundef @.str.2, ptr noundef %5, ptr noundef %8, ptr noundef %11)
  ret void
}

; Function Attrs: nounwind sspstrong uwtable
define internal i32 @discard_f(ptr noundef %0, i32 noundef %1, ptr noundef %2) #0 {
  %4 = alloca i32, align 4
  %5 = alloca ptr, align 8
  %6 = alloca i32, align 4
  %7 = alloca ptr, align 8
  %8 = alloca %struct.timespec, align 8
  %9 = alloca %struct.timespec, align 8
  %10 = alloca i8, align 1
  %11 = alloca i8, align 1
  %12 = alloca i32, align 4
  %13 = alloca i32, align 4
  %14 = alloca i64, align 8
  %15 = alloca i64, align 8
  %16 = alloca i32, align 4
  %17 = alloca %struct.timespec, align 8
  store ptr %0, ptr %5, align 8
  store i32 %1, ptr %6, align 4
  store ptr %2, ptr %7, align 8
  call void @llvm.lifetime.start.p0(i64 16, ptr %8) #18
  call void @llvm.memset.p0.i64(ptr align 8 %8, i8 0, i64 16, i1 false), !annotation !4
  call void @llvm.lifetime.start.p0(i64 16, ptr %9) #18
  call void @llvm.memset.p0.i64(ptr align 8 %9, i8 0, i64 16, i1 false), !annotation !4
  call void @llvm.lifetime.start.p0(i64 1, ptr %10) #18
  store i8 0, ptr %10, align 1
  call void @llvm.lifetime.start.p0(i64 1, ptr %11) #18
  store i8 0, ptr %11, align 1
  call void @llvm.lifetime.start.p0(i64 4, ptr %12) #18
  store i32 0, ptr %12, align 4, !annotation !4
  call void @llvm.lifetime.start.p0(i64 4, ptr %13) #18
  store i32 0, ptr %13, align 4, !annotation !4
  call void @llvm.lifetime.start.p0(i64 8, ptr %14) #18
  store i64 0, ptr %14, align 8, !annotation !4
  call void @llvm.lifetime.start.p0(i64 8, ptr %15) #18
  store i64 0, ptr %15, align 8, !annotation !4
  br label %18

18:                                               ; preds = %28, %3
  %19 = load i32, ptr %6, align 4
  %20 = load ptr, ptr %7, align 8
  %21 = call i32 @getopt(i32 noundef %19, ptr noundef %20, ptr noundef @.str.159) #18
  store i32 %21, ptr %12, align 4
  %22 = icmp ne i32 %21, -1
  br i1 %22, label %23, label %29

23:                                               ; preds = %18
  %24 = load i32, ptr %12, align 4
  switch i32 %24, label %27 [
    i32 67, label %25
    i32 113, label %26
  ]

25:                                               ; preds = %23
  store i8 1, ptr %10, align 1
  br label %28

26:                                               ; preds = %23
  store i8 1, ptr %11, align 1
  br label %28

27:                                               ; preds = %23
  call void @qemuio_command_usage(ptr noundef @discard_cmd)
  store i32 -22, ptr %4, align 4
  store i32 1, ptr %16, align 4
  br label %122

28:                                               ; preds = %26, %25
  br label %18, !llvm.loop !29

29:                                               ; preds = %18
  %30 = load i32, ptr @optind, align 4
  %31 = load i32, ptr %6, align 4
  %32 = sub i32 %31, 2
  %33 = icmp ne i32 %30, %32
  br i1 %33, label %34, label %35

34:                                               ; preds = %29
  call void @qemuio_command_usage(ptr noundef @discard_cmd)
  store i32 -22, ptr %4, align 4
  store i32 1, ptr %16, align 4
  br label %122

35:                                               ; preds = %29
  %36 = load ptr, ptr %7, align 8
  %37 = load i32, ptr @optind, align 4
  %38 = sext i32 %37 to i64
  %39 = getelementptr inbounds ptr, ptr %36, i64 %38
  %40 = load ptr, ptr %39, align 8
  %41 = call i64 @cvtnum(ptr noundef %40)
  store i64 %41, ptr %14, align 8
  %42 = load i64, ptr %14, align 8
  %43 = icmp slt i64 %42, 0
  br i1 %43, label %44, label %53

44:                                               ; preds = %35
  %45 = load i64, ptr %14, align 8
  %46 = load ptr, ptr %7, align 8
  %47 = load i32, ptr @optind, align 4
  %48 = sext i32 %47 to i64
  %49 = getelementptr inbounds ptr, ptr %46, i64 %48
  %50 = load ptr, ptr %49, align 8
  call void @print_cvtnum_err(i64 noundef %45, ptr noundef %50)
  %51 = load i64, ptr %14, align 8
  %52 = trunc i64 %51 to i32
  store i32 %52, ptr %4, align 4
  store i32 1, ptr %16, align 4
  br label %122

53:                                               ; preds = %35
  %54 = load i32, ptr @optind, align 4
  %55 = add i32 %54, 1
  store i32 %55, ptr @optind, align 4
  %56 = load ptr, ptr %7, align 8
  %57 = load i32, ptr @optind, align 4
  %58 = sext i32 %57 to i64
  %59 = getelementptr inbounds ptr, ptr %56, i64 %58
  %60 = load ptr, ptr %59, align 8
  %61 = call i64 @cvtnum(ptr noundef %60)
  store i64 %61, ptr %15, align 8
  %62 = load i64, ptr %15, align 8
  %63 = icmp slt i64 %62, 0
  br i1 %63, label %64, label %73

64:                                               ; preds = %53
  %65 = load i64, ptr %15, align 8
  %66 = load ptr, ptr %7, align 8
  %67 = load i32, ptr @optind, align 4
  %68 = sext i32 %67 to i64
  %69 = getelementptr inbounds ptr, ptr %66, i64 %68
  %70 = load ptr, ptr %69, align 8
  call void @print_cvtnum_err(i64 noundef %65, ptr noundef %70)
  %71 = load i64, ptr %15, align 8
  %72 = trunc i64 %71 to i32
  store i32 %72, ptr %4, align 4
  store i32 1, ptr %16, align 4
  br label %122

73:                                               ; preds = %53
  %74 = load i64, ptr %15, align 8
  %75 = icmp ugt i64 %74, 2147483136
  br i1 %75, label %76, label %83

76:                                               ; preds = %73
  %77 = load ptr, ptr %7, align 8
  %78 = load i32, ptr @optind, align 4
  %79 = sext i32 %78 to i64
  %80 = getelementptr inbounds ptr, ptr %77, i64 %79
  %81 = load ptr, ptr %80, align 8
  %82 = call i32 (i32, ptr, ...) @__printf_chk(i32 noundef 1, ptr noundef @.str.23, i64 noundef 2147483136, ptr noundef %81)
  store i32 -22, ptr %4, align 4
  store i32 1, ptr %16, align 4
  br label %122

83:                                               ; preds = %73
  br label %84

84:                                               ; preds = %83
  %85 = call i32 @clock_gettime(i32 noundef 1, ptr noundef %8) #18
  %86 = load ptr, ptr %5, align 8
  %87 = load i64, ptr %14, align 8
  %88 = load i64, ptr %15, align 8
  %89 = call i32 @blk_pdiscard(ptr noundef %86, i64 noundef %87, i64 noundef %88)
  store i32 %89, ptr %13, align 4
  %90 = call i32 @clock_gettime(i32 noundef 1, ptr noundef %9) #18
  %91 = load i32, ptr %13, align 4
  %92 = icmp slt i32 %91, 0
  br i1 %92, label %93, label %99

93:                                               ; preds = %84
  %94 = load i32, ptr %13, align 4
  %95 = sub i32 0, %94
  %96 = call ptr @strerror(i32 noundef %95) #18
  %97 = call i32 (i32, ptr, ...) @__printf_chk(i32 noundef 1, ptr noundef @.str.160, ptr noundef %96)
  %98 = load i32, ptr %13, align 4
  store i32 %98, ptr %4, align 4
  store i32 1, ptr %16, align 4
  br label %122

99:                                               ; preds = %84
  %100 = load i8, ptr %11, align 1, !range !11, !noundef !12
  %101 = trunc i8 %100 to i1
  br i1 %101, label %121, label %102

102:                                              ; preds = %99
  call void @llvm.lifetime.start.p0(i64 16, ptr %17) #18
  %103 = getelementptr inbounds nuw { i64, i64 }, ptr %9, i32 0, i32 0
  %104 = load i64, ptr %103, align 8
  %105 = getelementptr inbounds nuw { i64, i64 }, ptr %9, i32 0, i32 1
  %106 = load i64, ptr %105, align 8
  %107 = getelementptr inbounds nuw { i64, i64 }, ptr %8, i32 0, i32 0
  %108 = load i64, ptr %107, align 8
  %109 = getelementptr inbounds nuw { i64, i64 }, ptr %8, i32 0, i32 1
  %110 = load i64, ptr %109, align 8
  %111 = call { i64, i64 } @tsub(i64 %104, i64 %106, i64 %108, i64 %110)
  %112 = getelementptr inbounds nuw { i64, i64 }, ptr %17, i32 0, i32 0
  %113 = extractvalue { i64, i64 } %111, 0
  store i64 %113, ptr %112, align 8
  %114 = getelementptr inbounds nuw { i64, i64 }, ptr %17, i32 0, i32 1
  %115 = extractvalue { i64, i64 } %111, 1
  store i64 %115, ptr %114, align 8
  call void @llvm.memcpy.p0.p0.i64(ptr align 8 %9, ptr align 8 %17, i64 16, i1 false)
  call void @llvm.lifetime.end.p0(i64 16, ptr %17) #18
  %116 = load i64, ptr %14, align 8
  %117 = load i64, ptr %15, align 8
  %118 = load i64, ptr %15, align 8
  %119 = load i8, ptr %10, align 1, !range !11, !noundef !12
  %120 = trunc i8 %119 to i1
  call void @print_report(ptr noundef @.str.155, ptr noundef %9, i64 noundef %116, i64 noundef %117, i64 noundef %118, i32 noundef 1, i1 noundef zeroext %120)
  br label %121

121:                                              ; preds = %102, %99
  store i32 0, ptr %4, align 4
  store i32 1, ptr %16, align 4
  br label %122

122:                                              ; preds = %121, %93, %76, %64, %44, %34, %27
  call void @llvm.lifetime.end.p0(i64 8, ptr %15) #18
  call void @llvm.lifetime.end.p0(i64 8, ptr %14) #18
  call void @llvm.lifetime.end.p0(i64 4, ptr %13) #18
  call void @llvm.lifetime.end.p0(i64 4, ptr %12) #18
  call void @llvm.lifetime.end.p0(i64 1, ptr %11) #18
  call void @llvm.lifetime.end.p0(i64 1, ptr %10) #18
  call void @llvm.lifetime.end.p0(i64 16, ptr %9) #18
  call void @llvm.lifetime.end.p0(i64 16, ptr %8) #18
  %123 = load i32, ptr %4, align 4
  ret i32 %123
}