; Function Attrs: nounwind sspstrong uwtable
define internal range(i32 -2147483648, 1) i32 @discard_f(ptr noundef %0, i32 noundef %1, ptr noundef %2) #0 {
  %4 = alloca i64, align 8
  %5 = alloca i64, align 8
  %6 = alloca %struct.timespec, align 8
  %7 = alloca %struct.timespec, align 8
  call void @llvm.lifetime.start.p0(i64 16, ptr nonnull %6) #26
  call void @llvm.lifetime.start.p0(i64 16, ptr nonnull %7) #26
  br label %.outer

.outer:                                           ; preds = %10, %3
  %.028.ph = phi i1 [ true, %10 ], [ false, %3 ]
  %.027.ph = phi i1 [ %.027, %10 ], [ false, %3 ]
  br label %8

8:                                                ; preds = %.outer, %8
  %.027 = phi i1 [ true, %8 ], [ %.027.ph, %.outer ]
  %9 = tail call i32 @getopt(i32 noundef %1, ptr noundef %2, ptr noundef nonnull @.str.159) #26
  switch i32 %9, label %11 [
    i32 -1, label %13
    i32 67, label %8
    i32 113, label %10
  ], !llvm.loop !29

10:                                               ; preds = %8
  br label %.outer, !llvm.loop !29

11:                                               ; preds = %8
  %12 = tail call i32 (i32, ptr, ...) @__printf_chk(i32 noundef 1, ptr noundef nonnull @.str.2, ptr noundef nonnull @.str.155, ptr noundef nonnull @.str.157, ptr noundef nonnull @.str.158) #26
  br label %82

13:                                               ; preds = %8
  %14 = load i32, ptr @optind, align 4
  %15 = add i32 %1, -2
  %.not37 = icmp eq i32 %14, %15
  br i1 %.not37, label %18, label %16

16:                                               ; preds = %13
  %17 = tail call i32 (i32, ptr, ...) @__printf_chk(i32 noundef 1, ptr noundef nonnull @.str.2, ptr noundef nonnull @.str.155, ptr noundef nonnull @.str.157, ptr noundef nonnull @.str.158) #26
  br label %82

18:                                               ; preds = %13
  call void @llvm.memset.p0.i64(ptr noundef nonnull align 8 dereferenceable(16) %6, i8 0, i64 16, i1 false), !annotation !8
  call void @llvm.memset.p0.i64(ptr noundef nonnull align 8 dereferenceable(16) %7, i8 0, i64 16, i1 false), !annotation !8
  %19 = sext i32 %14 to i64
  %20 = getelementptr inbounds ptr, ptr %2, i64 %19
  %21 = load ptr, ptr %20, align 8
  call void @llvm.lifetime.start.p0(i64 8, ptr nonnull %5) #26
  store i64 0, ptr %5, align 8, !annotation !8
  %22 = call i32 @qemu_strtosz(ptr noundef %21, ptr noundef null, ptr noundef nonnull %5) #26
  %23 = icmp slt i32 %22, 0
  %24 = sext i32 %22 to i64
  %25 = load i64, ptr %5, align 8
  %26 = icmp slt i64 %25, 0
  %..i = select i1 %26, i64 -34, i64 %25
  %.0.i = select i1 %23, i64 %24, i64 %..i
  call void @llvm.lifetime.end.p0(i64 8, ptr nonnull %5) #26
  %27 = icmp slt i64 %.0.i, 0
  %28 = load i32, ptr @optind, align 4
  br i1 %27, label %29, label %35

29:                                               ; preds = %18
  %30 = sext i32 %28 to i64
  %31 = getelementptr inbounds ptr, ptr %2, i64 %30
  %32 = load ptr, ptr %31, align 8
  %switch.selectcmp.i = icmp eq i64 %.0.i, -34
  %switch.select.i = select i1 %switch.selectcmp.i, ptr @.str.31, ptr @.str.32
  %switch.selectcmp3.i = icmp eq i64 %.0.i, -22
  %switch.select4.i = select i1 %switch.selectcmp3.i, ptr @.str.30, ptr %switch.select.i
  %33 = call i32 (i32, ptr, ...) @__printf_chk(i32 noundef 1, ptr noundef nonnull %switch.select4.i, ptr noundef %32) #26
  %34 = trunc nsw i64 %.0.i to i32
  br label %82

35:                                               ; preds = %18
  %36 = add i32 %28, 1
  store i32 %36, ptr @optind, align 4
  %37 = sext i32 %36 to i64
  %38 = getelementptr inbounds ptr, ptr %2, i64 %37
  %39 = load ptr, ptr %38, align 8
  call void @llvm.lifetime.start.p0(i64 8, ptr nonnull %4) #26
  store i64 0, ptr %4, align 8, !annotation !8
  %40 = call i32 @qemu_strtosz(ptr noundef %39, ptr noundef null, ptr noundef nonnull %4) #26
  %41 = icmp slt i32 %40, 0
  %42 = sext i32 %40 to i64
  %43 = load i64, ptr %4, align 8
  %44 = icmp slt i64 %43, 0
  %..i38 = select i1 %44, i64 -34, i64 %43
  %.0.i39 = select i1 %41, i64 %42, i64 %..i38
  call void @llvm.lifetime.end.p0(i64 8, ptr nonnull %4) #26
  %45 = icmp slt i64 %.0.i39, 0
  br i1 %45, label %46, label %53

46:                                               ; preds = %35
  %47 = load i32, ptr @optind, align 4
  %48 = sext i32 %47 to i64
  %49 = getelementptr inbounds ptr, ptr %2, i64 %48
  %50 = load ptr, ptr %49, align 8
  %switch.selectcmp.i40 = icmp eq i64 %.0.i39, -34
  %switch.select.i41 = select i1 %switch.selectcmp.i40, ptr @.str.31, ptr @.str.32
  %switch.selectcmp3.i42 = icmp eq i64 %.0.i39, -22
  %switch.select4.i43 = select i1 %switch.selectcmp3.i42, ptr @.str.30, ptr %switch.select.i41
  %51 = call i32 (i32, ptr, ...) @__printf_chk(i32 noundef 1, ptr noundef nonnull %switch.select4.i43, ptr noundef %50) #26
  %52 = trunc nsw i64 %.0.i39 to i32
  br label %82

53:                                               ; preds = %35
  %54 = icmp samesign ugt i64 %.0.i39, 2147483136
  br i1 %54, label %55, label %61

55:                                               ; preds = %53
  %56 = load i32, ptr @optind, align 4
  %57 = sext i32 %56 to i64
  %58 = getelementptr inbounds ptr, ptr %2, i64 %57
  %59 = load ptr, ptr %58, align 8
  %60 = call i32 (i32, ptr, ...) @__printf_chk(i32 noundef 1, ptr noundef nonnull @.str.23, i64 noundef 2147483136, ptr noundef %59) #26
  br label %82

61:                                               ; preds = %53
  %62 = call i32 @clock_gettime(i32 noundef 1, ptr noundef nonnull %6) #26
  %63 = call i32 @blk_pdiscard(ptr noundef %0, i64 noundef %.0.i, i64 noundef %.0.i39) #26
  %64 = call i32 @clock_gettime(i32 noundef 1, ptr noundef nonnull %7) #26
  %65 = icmp slt i32 %63, 0
  br i1 %65, label %66, label %70

66:                                               ; preds = %61
  %67 = sub i32 0, %63
  %68 = call ptr @strerror(i32 noundef %67) #26
  %69 = call i32 (i32, ptr, ...) @__printf_chk(i32 noundef 1, ptr noundef nonnull @.str.160, ptr noundef %68) #26
  br label %82

70:                                               ; preds = %61
  br i1 %.028.ph, label %82, label %71

71:                                               ; preds = %70
  %72 = load i64, ptr %7, align 8
  %73 = getelementptr inbounds nuw i8, ptr %7, i64 8
  %74 = load i64, ptr %73, align 8
  %75 = load i64, ptr %6, align 8
  %76 = getelementptr inbounds nuw i8, ptr %6, i64 8
  %77 = load i64, ptr %76, align 8
  %78 = sub i64 %74, %77
  %79 = icmp slt i64 %78, 0
  %80 = add nsw i64 %78, 1000000000
  %.lobit.i = ashr i64 %78, 63
  %.sroa.6.0.i = select i1 %79, i64 %80, i64 %78
  %.sroa.01.0.i = sub i64 %72, %75
  %81 = add i64 %.sroa.01.0.i, %.lobit.i
  store i64 %81, ptr %7, align 8
  store i64 %.sroa.6.0.i, ptr %73, align 8
  call fastcc void @print_report(ptr noundef nonnull @.str.155, ptr noundef %7, i64 noundef %.0.i, i64 noundef %.0.i39, i64 noundef %.0.i39, i32 noundef 1, i1 noundef zeroext %.027)
  br label %82

82:                                               ; preds = %70, %71, %66, %55, %46, %29, %16, %11
  %.0 = phi i32 [ -22, %11 ], [ -22, %16 ], [ %34, %29 ], [ %52, %46 ], [ -22, %55 ], [ %63, %66 ], [ 0, %71 ], [ 0, %70 ]
  call void @llvm.lifetime.end.p0(i64 16, ptr nonnull %7) #26
  call void @llvm.lifetime.end.p0(i64 16, ptr nonnull %6) #26
  ret i32 %.0
}